target datalayout = "e-m:e-p270:32:32-p271:32:32-p272:64:64-i64:64-i128:128-f80:128-n8:16:32:64-S128"
target triple = "x86_64-pc-linux-gnu"

; Function Attrs: mustprogress uwtable
define internal noundef i32 @_ZN3nixL6doForkEbRSt8functionIFvvEE(i1 noundef zeroext %0, ptr noundef nonnull align 8 dereferenceable(32) %1) #5 {
  %3 = alloca i8, align 1
  %4 = alloca ptr, align 8
  %5 = alloca i32, align 4
  %6 = zext i1 %0 to i8
  store i8 %6, ptr %3, align 1
  store ptr %1, ptr %4, align 8
  %7 = load i8, ptr %3, align 1
  %8 = trunc i8 %7 to i1
  br i1 %8, label %9, label %11

9:                                                ; preds = %2
  %10 = call i32 @vfork() #24
  br label %13

11:                                               ; preds = %2
  %12 = call i32 @fork() #1
  br label %13

13:                                               ; preds = %11, %9
  %14 = phi i32 [ %10, %9 ], [ %12, %11 ]
  store i32 %14, ptr %5, align 4
  %15 = load i32, ptr %5, align 4
  %16 = icmp ne i32 %15, 0
  br i1 %16, label %17, label %19

17:                                               ; preds = %13
  %18 = load i32, ptr %5, align 4
  ret i32 %18

19:                                               ; preds = %13
  %20 = load ptr, ptr %4, align 8
  call void @_ZNKSt8functionIFvvEEclEv(ptr noundef nonnull align 8 dereferenceable(32) %20)
  call void @abort() #21
  unreachable
}