; Function Attrs: mustprogress uwtable
define internal fastcc noundef i32 @_ZN3nixL6doForkEbRSt8functionIFvvEE(i1 noundef zeroext %0, ptr noundef nonnull align 8 dereferenceable(32) %1) unnamed_addr #6 {
  br i1 %0, label %3, label %5

3:                                                ; preds = %2
  %4 = call i32 @vfork() #38
  br label %7

5:                                                ; preds = %2
  %6 = call i32 @fork() #32
  br label %7

7:                                                ; preds = %5, %3
  %8 = phi i32 [ %4, %3 ], [ %6, %5 ]
  %.not = icmp eq i32 %8, 0
  br i1 %.not, label %10, label %9

9:                                                ; preds = %7
  ret i32 %8

10:                                               ; preds = %7
  call void @_ZNKSt8functionIFvvEEclEv(ptr noundef nonnull align 8 dereferenceable(32) %1)
  call void @abort() #33
  unreachable
}